; Function Attrs: nofree nosync nounwind memory(read, inaccessiblemem: none) uwtable
define internal fastcc range(i32 0, 2) i32 @is_invalid_quantifier_target(ptr noundef readonly captures(none) %0) unnamed_addr #21 {
  %2 = load i32, ptr %0, align 8, !tbaa !10
  switch i32 %2, label %.loopexit11 [
    i32 6, label %.loopexit
    i32 10, label %.loopexit
    i32 8, label %.preheader
    i32 7, label %.preheader12
  ]

.preheader12:                                     ; preds = %1, %6
  %.0 = phi ptr [ %8, %6 ], [ %0, %1 ]
  %3 = getelementptr inbounds nuw i8, ptr %.0, i64 16
  %4 = load ptr, ptr %3, align 8, !tbaa !10
  %5 = tail call fastcc i32 @is_invalid_quantifier_target(ptr noundef %4)
  %.not = icmp eq i32 %5, 0
  br i1 %.not, label %.loopexit, label %6

6:                                                ; preds = %.preheader12
  %7 = getelementptr inbounds nuw i8, ptr %.0, i64 24
  %8 = load ptr, ptr %7, align 8, !tbaa !10
  %.not8 = icmp eq ptr %8, null
  br i1 %.not8, label %.loopexit, label %.preheader12, !llvm.loop !254

.preheader:                                       ; preds = %1, %12
  %.1 = phi ptr [ %14, %12 ], [ %0, %1 ]
  %9 = getelementptr inbounds nuw i8, ptr %.1, i64 16
  %10 = load ptr, ptr %9, align 8, !tbaa !10
  %11 = tail call fastcc i32 @is_invalid_quantifier_target(ptr noundef %10)
  %.not9 = icmp eq i32 %11, 0
  br i1 %.not9, label %12, label %.loopexit

12:                                               ; preds = %.preheader
  %13 = getelementptr inbounds nuw i8, ptr %.1, i64 24
  %14 = load ptr, ptr %13, align 8, !tbaa !10
  %.not10 = icmp eq ptr %14, null
  br i1 %.not10, label %.loopexit11, label %.preheader, !llvm.loop !255

.loopexit11:                                      ; preds = %12, %1
  br label %.loopexit

.loopexit:                                        ; preds = %6, %.preheader12, %.preheader, %1, %1, %.loopexit11
  %.05 = phi i32 [ 0, %.loopexit11 ], [ 1, %1 ], [ 1, %1 ], [ 1, %.preheader ], [ 0, %.preheader12 ], [ 0, %6 ]
  ret i32 %.05
}